; Function Attrs: mustprogress uwtable
define internal void @"_ZNSt17_Function_handlerIFN8QuantLib5ArrayERKS1_EZNS0_19ImplicitEulerScheme4stepERS1_ddE3$_0E9_M_invokeERKSt9_Any_dataS3_"(ptr dead_on_unwind noalias writable sret(%"class.QuantLib::Array") align 8 %agg.result, ptr nocapture noundef nonnull readonly align 8 dereferenceable(16) %__functor, ptr noundef nonnull align 8 dereferenceable(16) %__args) #3 align 2 {
entry:
  %call.val = load ptr, ptr %__functor, align 8, !tbaa !83
  %0 = getelementptr inbounds i8, ptr %__functor, i64 8
  %call.val1 = load ptr, ptr %0, align 8, !tbaa !85
  %call.val1.val = load double, ptr %call.val1, align 8, !tbaa !55
  tail call void @_ZNK8QuantLib19ImplicitEulerScheme5applyERKNS_5ArrayEd(ptr dead_on_unwind writable sret(%"class.QuantLib::Array") align 8 %agg.result, ptr noundef nonnull readonly align 8 dereferenceable(76) %call.val, ptr noundef nonnull align 8 dereferenceable(16) %__args, double noundef %call.val1.val)
  ret void
}